target datalayout = "e-m:e-p270:32:32-p271:32:32-p272:64:64-i64:64-i128:128-f80:128-n8:16:32:64-S128"
target triple = "x86_64-pc-linux-gnu"

%struct._GtkTreeIter = type { i32, ptr, ptr, ptr }
%struct.popup_info = type { ptr, ptr, i32, i32, ptr, ptr, ptr, %struct._GtkTreeIter, ptr, ptr, i32, i8, ptr, ptr, i32, ptr, ptr, i32, i32 }

@sview_mutex = external global ptr, align 8

; Function Attrs: nounwind uwtable
define dso_local void @destroy_popup_info(ptr noundef %0) #0 {
  %2 = alloca ptr, align 8
  %3 = alloca ptr, align 8
  store ptr %0, ptr %2, align 8
  call void @llvm.lifetime.start.p0(i64 8, ptr %3) #11
  %4 = load ptr, ptr %2, align 8
  store ptr %4, ptr %3, align 8
  %5 = load ptr, ptr %3, align 8
  %6 = icmp ne ptr %5, null
  br i1 %6, label %7, label %80

7:                                                ; preds = %1
  %8 = load ptr, ptr %3, align 8
  %9 = getelementptr inbounds nuw %struct.popup_info, ptr %8, i32 0, i32 13
  %10 = load ptr, ptr %9, align 8
  store i32 0, ptr %10, align 4
  %11 = load ptr, ptr @sview_mutex, align 8
  call void @g_mutex_lock(ptr noundef %11)
  br label %12

12:                                               ; preds = %7
  %13 = load ptr, ptr %3, align 8
  %14 = getelementptr inbounds nuw %struct.popup_info, ptr %13, i32 0, i32 4
  %15 = load ptr, ptr %14, align 8
  %16 = icmp ne ptr %15, null
  br i1 %16, label %17, label %21

17:                                               ; preds = %12
  %18 = load ptr, ptr %3, align 8
  %19 = getelementptr inbounds nuw %struct.popup_info, ptr %18, i32 0, i32 4
  %20 = load ptr, ptr %19, align 8
  call void @list_destroy(ptr noundef %20)
  br label %21

21:                                               ; preds = %17, %12
  %22 = load ptr, ptr %3, align 8
  %23 = getelementptr inbounds nuw %struct.popup_info, ptr %22, i32 0, i32 4
  store ptr null, ptr %23, align 8
  br label %24

24:                                               ; preds = %21
  br label %25

25:                                               ; preds = %24
  %26 = load ptr, ptr %3, align 8
  %27 = getelementptr inbounds nuw %struct.popup_info, ptr %26, i32 0, i32 16
  %28 = load ptr, ptr %27, align 8
  %29 = icmp ne ptr %28, null
  br i1 %29, label %30, label %38

30:                                               ; preds = %25
  %31 = load ptr, ptr %3, align 8
  %32 = getelementptr inbounds nuw %struct.popup_info, ptr %31, i32 0, i32 16
  %33 = load ptr, ptr %32, align 8
  %34 = call i64 @gtk_widget_get_type() #12
  %35 = call ptr @g_type_check_instance_cast(ptr noundef %33, i64 noundef %34)
  call void @gtk_widget_destroy(ptr noundef %35)
  %36 = load ptr, ptr %3, align 8
  %37 = getelementptr inbounds nuw %struct.popup_info, ptr %36, i32 0, i32 16
  store ptr null, ptr %37, align 8
  br label %38

38:                                               ; preds = %30, %25
  %39 = load ptr, ptr %3, align 8
  %40 = getelementptr inbounds nuw %struct.popup_info, ptr %39, i32 0, i32 6
  %41 = load ptr, ptr %40, align 8
  %42 = icmp ne ptr %41, null
  br i1 %42, label %43, label %51

43:                                               ; preds = %38
  %44 = load ptr, ptr %3, align 8
  %45 = getelementptr inbounds nuw %struct.popup_info, ptr %44, i32 0, i32 6
  %46 = load ptr, ptr %45, align 8
  %47 = call i64 @gtk_widget_get_type() #12
  %48 = call ptr @g_type_check_instance_cast(ptr noundef %46, i64 noundef %47)
  call void @gtk_widget_destroy(ptr noundef %48)
  %49 = load ptr, ptr %3, align 8
  %50 = getelementptr inbounds nuw %struct.popup_info, ptr %49, i32 0, i32 6
  store ptr null, ptr %50, align 8
  br label %51

51:                                               ; preds = %43, %38
  %52 = load ptr, ptr %3, align 8
  %53 = getelementptr inbounds nuw %struct.popup_info, ptr %52, i32 0, i32 1
  %54 = load ptr, ptr %53, align 8
  %55 = icmp ne ptr %54, null
  br i1 %55, label %56, label %62

56:                                               ; preds = %51
  %57 = load ptr, ptr %3, align 8
  %58 = getelementptr inbounds nuw %struct.popup_info, ptr %57, i32 0, i32 1
  %59 = load ptr, ptr %58, align 8
  call void @gtk_widget_destroy(ptr noundef %59)
  %60 = load ptr, ptr %3, align 8
  %61 = getelementptr inbounds nuw %struct.popup_info, ptr %60, i32 0, i32 1
  store ptr null, ptr %61, align 8
  br label %62

62:                                               ; preds = %56, %51
  %63 = load ptr, ptr %3, align 8
  %64 = getelementptr inbounds nuw %struct.popup_info, ptr %63, i32 0, i32 12
  %65 = load ptr, ptr %64, align 8
  %66 = icmp ne ptr %65, null
  br i1 %66, label %67, label %73

67:                                               ; preds = %62
  %68 = load ptr, ptr %3, align 8
  %69 = getelementptr inbounds nuw %struct.popup_info, ptr %68, i32 0, i32 12
  %70 = load ptr, ptr %69, align 8
  call void @gtk_widget_destroy(ptr noundef %70)
  %71 = load ptr, ptr %3, align 8
  %72 = getelementptr inbounds nuw %struct.popup_info, ptr %71, i32 0, i32 12
  store ptr null, ptr %72, align 8
  br label %73

73:                                               ; preds = %67, %62
  %74 = load ptr, ptr %3, align 8
  %75 = getelementptr inbounds nuw %struct.popup_info, ptr %74, i32 0, i32 15
  %76 = load ptr, ptr %75, align 8
  call void @destroy_specific_info(ptr noundef %76)
  %77 = load ptr, ptr %3, align 8
  %78 = getelementptr inbounds nuw %struct.popup_info, ptr %77, i32 0, i32 0
  call void @slurm_xfree(ptr noundef %78)
  call void @slurm_xfree(ptr noundef %3)
  %79 = load ptr, ptr @sview_mutex, align 8
  call void @g_mutex_unlock(ptr noundef %79)
  br label %80

80:                                               ; preds = %73, %1
  call void @llvm.lifetime.end.p0(i64 8, ptr %3) #11
  ret void
}