; Function Attrs: nounwind uwtable
define dso_local void @destroy_popup_info(ptr noundef %0) local_unnamed_addr #2 {
  %2 = alloca ptr, align 8
  call void @llvm.lifetime.start.p0(i64 8, ptr nonnull %2) #16
  store ptr %0, ptr %2, align 8
  %.not = icmp eq ptr %0, null
  br i1 %.not, label %34, label %3

3:                                                ; preds = %1
  %4 = getelementptr inbounds nuw i8, ptr %0, i64 112
  %5 = load ptr, ptr %4, align 8
  store i32 0, ptr %5, align 4
  %6 = load ptr, ptr @sview_mutex, align 8
  tail call void @g_mutex_lock(ptr noundef %6) #16
  %7 = getelementptr inbounds nuw i8, ptr %0, i64 24
  %8 = load ptr, ptr %7, align 8
  %.not6 = icmp eq ptr %8, null
  br i1 %.not6, label %10, label %9

9:                                                ; preds = %3
  tail call void @list_destroy(ptr noundef nonnull %8) #16
  br label %10

10:                                               ; preds = %9, %3
  store ptr null, ptr %7, align 8
  %11 = getelementptr inbounds nuw i8, ptr %0, i64 136
  %12 = load ptr, ptr %11, align 8
  %.not7 = icmp eq ptr %12, null
  br i1 %.not7, label %16, label %13

13:                                               ; preds = %10
  %14 = tail call i64 @gtk_widget_get_type() #17
  %15 = tail call ptr @g_type_check_instance_cast(ptr noundef nonnull %12, i64 noundef %14) #16
  tail call void @gtk_widget_destroy(ptr noundef %15) #16
  store ptr null, ptr %11, align 8
  br label %16

16:                                               ; preds = %13, %10
  %17 = getelementptr inbounds nuw i8, ptr %0, i64 40
  %18 = load ptr, ptr %17, align 8
  %.not8 = icmp eq ptr %18, null
  br i1 %.not8, label %22, label %19

19:                                               ; preds = %16
  %20 = tail call i64 @gtk_widget_get_type() #17
  %21 = tail call ptr @g_type_check_instance_cast(ptr noundef nonnull %18, i64 noundef %20) #16
  tail call void @gtk_widget_destroy(ptr noundef %21) #16
  store ptr null, ptr %17, align 8
  br label %22

22:                                               ; preds = %19, %16
  %23 = getelementptr inbounds nuw i8, ptr %0, i64 8
  %24 = load ptr, ptr %23, align 8
  %.not9 = icmp eq ptr %24, null
  br i1 %.not9, label %26, label %25

25:                                               ; preds = %22
  tail call void @gtk_widget_destroy(ptr noundef nonnull %24) #16
  store ptr null, ptr %23, align 8
  br label %26

26:                                               ; preds = %25, %22
  %27 = getelementptr inbounds nuw i8, ptr %0, i64 104
  %28 = load ptr, ptr %27, align 8
  %.not10 = icmp eq ptr %28, null
  br i1 %.not10, label %30, label %29

29:                                               ; preds = %26
  tail call void @gtk_widget_destroy(ptr noundef nonnull %28) #16
  store ptr null, ptr %27, align 8
  br label %30

30:                                               ; preds = %29, %26
  %31 = getelementptr inbounds nuw i8, ptr %0, i64 128
  %32 = load ptr, ptr %31, align 8
  tail call void @destroy_specific_info(ptr noundef %32)
  tail call void @slurm_xfree(ptr noundef nonnull %0) #16
  call void @slurm_xfree(ptr noundef nonnull %2) #16
  %33 = load ptr, ptr @sview_mutex, align 8
  call void @g_mutex_unlock(ptr noundef %33) #16
  br label %34

34:                                               ; preds = %30, %1
  call void @llvm.lifetime.end.p0(i64 8, ptr nonnull %2) #16
  ret void
}